; Function Attrs: mustprogress uwtable
define noundef range(i32 -1, 1) i32 @_ZN3zmq14session_base_t12read_zap_msgEPNS_5msg_tE(ptr noundef nonnull readonly align 8 captures(none) dereferenceable(1624) %0, ptr noundef %1) local_unnamed_addr #0 align 2 {
  %3 = getelementptr inbounds nuw i8, ptr %0, i64 1488
  %4 = load ptr, ptr %3, align 8, !tbaa !103
  %5 = icmp eq ptr %4, null
  br i1 %5, label %.sink.split, label %6

6:                                                ; preds = %2
  %7 = tail call noundef zeroext i1 @_ZN3zmq6pipe_t4readEPNS_5msg_tE(ptr noundef nonnull align 8 dereferenceable(328) %4, ptr noundef %1)
  br i1 %7, label %9, label %.sink.split

.sink.split:                                      ; preds = %6, %2
  %.sink = phi i32 [ 107, %2 ], [ 11, %6 ]
  %8 = tail call ptr @__errno_location() #26
  store i32 %.sink, ptr %8, align 4, !tbaa !51
  br label %9

9:                                                ; preds = %.sink.split, %6
  %.0 = phi i32 [ 0, %6 ], [ -1, %.sink.split ]
  ret i32 %.0
}